; Function Attrs: mustprogress null_pointer_is_valid sspstrong uwtable
define void @_ZN9ProtoTree12autoScrollToERK11QModelIndex(ptr noundef align 8 dereferenceable_or_null(208) %0, ptr noundef align 8 dereferenceable(24) %1) local_unnamed_addr #0 align 2 {
  %3 = tail call noundef ptr @_ZNK17QAbstractItemView14selectionModelEv(ptr noundef align 8 dereferenceable_or_null(40) %0)
  %4 = load ptr, ptr %3, align 8
  %5 = getelementptr inbounds nuw i8, ptr %4, i64 96
  %6 = load ptr, ptr %5, align 8
  tail call void %6(ptr noundef align 8 dereferenceable_or_null(16) %3, ptr noundef align 8 dereferenceable(24) %1, i32 3)
  %7 = load i32, ptr %1, align 8
  %8 = icmp sgt i32 %7, -1
  %9 = getelementptr inbounds nuw i8, ptr %1, i64 4
  %10 = load i32, ptr %9, align 4
  %11 = icmp sgt i32 %10, -1
  %or.cond = select i1 %8, i1 %11, i1 false
  %12 = getelementptr inbounds nuw i8, ptr %1, i64 16
  %13 = load ptr, ptr %12, align 8
  %14 = icmp ne ptr %13, null
  %or.cond8 = select i1 %or.cond, i1 %14, i1 false
  br i1 %or.cond8, label %15, label %_ZNK11QModelIndex7isValidEv.exit.thread

15:                                               ; preds = %2
  %16 = load ptr, ptr %0, align 8
  %17 = getelementptr inbounds nuw i8, ptr %16, i64 488
  %18 = load ptr, ptr %17, align 8
  tail call void %18(ptr noundef align 8 dereferenceable_or_null(40) %0, ptr noundef align 8 dereferenceable(24) %1, i32 noundef 0)
  br label %_ZNK11QModelIndex7isValidEv.exit.thread

_ZNK11QModelIndex7isValidEv.exit.thread:          ; preds = %2, %15
  ret void
}